target datalayout = "e-m:e-p270:32:32-p271:32:32-p272:64:64-i64:64-i128:128-f80:128-n8:16:32:64-S128"
target triple = "x86_64-pc-linux-gnu"

; Function Attrs: nounwind uwtable
define internal void @Zero24(ptr noundef %0, i32 noundef %1, i32 noundef %2) #0 {
  %4 = alloca ptr, align 8
  %5 = alloca i32, align 4
  %6 = alloca i32, align 4
  %7 = alloca ptr, align 8
  store ptr %0, ptr %4, align 8, !tbaa !70
  store i32 %1, ptr %5, align 4, !tbaa !71
  store i32 %2, ptr %6, align 4, !tbaa !71
  call void @llvm.lifetime.start.p0(i64 8, ptr %7) #4
  %8 = load ptr, ptr %4, align 8, !tbaa !70
  store ptr %8, ptr %7, align 8, !tbaa !87
  br label %9

9:                                                ; preds = %13, %3
  %10 = load i32, ptr %6, align 4, !tbaa !71
  %11 = add i32 %10, -1
  store i32 %11, ptr %6, align 4, !tbaa !71
  %12 = icmp ne i32 %10, 0
  br i1 %12, label %13, label %25

13:                                               ; preds = %9
  %14 = load ptr, ptr %7, align 8, !tbaa !87
  %15 = getelementptr inbounds i8, ptr %14, i64 0
  store i8 0, ptr %15, align 1, !tbaa !89
  %16 = load ptr, ptr %7, align 8, !tbaa !87
  %17 = getelementptr inbounds i8, ptr %16, i64 1
  store i8 0, ptr %17, align 1, !tbaa !89
  %18 = load ptr, ptr %7, align 8, !tbaa !87
  %19 = getelementptr inbounds i8, ptr %18, i64 2
  store i8 0, ptr %19, align 1, !tbaa !89
  %20 = load i32, ptr %5, align 4, !tbaa !71
  %21 = mul nsw i32 %20, 3
  %22 = load ptr, ptr %7, align 8, !tbaa !87
  %23 = sext i32 %21 to i64
  %24 = getelementptr inbounds i8, ptr %22, i64 %23
  store ptr %24, ptr %7, align 8, !tbaa !87
  br label %9, !llvm.loop !155

25:                                               ; preds = %9
  call void @llvm.lifetime.end.p0(i64 8, ptr %7) #4
  ret void
}