; Function Attrs: nofree norecurse nosync nounwind memory(argmem: write) uwtable
define internal void @Zero24(ptr noundef writeonly captures(none) %0, i32 noundef %1, i32 noundef %2) #5 {
  %.not7 = icmp eq i32 %2, 0
  br i1 %.not7, label %._crit_edge, label %.lr.ph

.lr.ph:                                           ; preds = %3
  %4 = mul nsw i32 %1, 3
  %5 = sext i32 %4 to i64
  br label %6

6:                                                ; preds = %.lr.ph, %6
  %.09 = phi ptr [ %0, %.lr.ph ], [ %10, %6 ]
  %.068 = phi i32 [ %2, %.lr.ph ], [ %7, %6 ]
  %7 = add i32 %.068, -1
  store i8 0, ptr %.09, align 1, !tbaa !76
  %8 = getelementptr inbounds nuw i8, ptr %.09, i64 1
  store i8 0, ptr %8, align 1, !tbaa !76
  %9 = getelementptr inbounds nuw i8, ptr %.09, i64 2
  store i8 0, ptr %9, align 1, !tbaa !76
  %10 = getelementptr inbounds i8, ptr %.09, i64 %5
  %.not = icmp eq i32 %7, 0
  br i1 %.not, label %._crit_edge, label %6, !llvm.loop !137

._crit_edge:                                      ; preds = %6, %3
  ret void
}